target datalayout = "e-m:e-p270:32:32-p271:32:32-p272:64:64-i64:64-i128:128-f80:128-n8:16:32:64-S128"
target triple = "x86_64-pc-linux-gnu"

@.str.321 = private unnamed_addr constant [43 x i8] c"0800000000000000000000000000000000000000C9\00", align 1
@.str.435 = private unnamed_addr constant [133 x i8] c"01FFFFFFFFFFFFFFFFFFFFFFFFFFFFFFFFFFFFFFFFFFFFFFFFFFFFFFFFFFFFFFFFFFFFFFFFFFFFFFFFFFFFFFFFFFFFFFFFFFFFFFFFFFFFFFFFFFFFFFFFFFFFFFFFFF\00", align 1

; Function Attrs: nounwind uwtable
define internal i32 @group_field_test() #0 {
  %1 = alloca i32, align 4
  %2 = alloca ptr, align 8
  %3 = alloca ptr, align 8
  %4 = alloca ptr, align 8
  %5 = alloca ptr, align 8
  call void @llvm.lifetime.start.p0(i64 4, ptr %1) #7
  store i32 1, ptr %1, align 4, !tbaa !16
  call void @llvm.lifetime.start.p0(i64 8, ptr %2) #7
  store ptr null, ptr %2, align 8, !tbaa !26
  call void @llvm.lifetime.start.p0(i64 8, ptr %3) #7
  store ptr null, ptr %3, align 8, !tbaa !26
  call void @llvm.lifetime.start.p0(i64 8, ptr %4) #7
  store ptr null, ptr %4, align 8, !tbaa !10
  call void @llvm.lifetime.start.p0(i64 8, ptr %5) #7
  store ptr null, ptr %5, align 8, !tbaa !10
  %6 = call i32 @BN_hex2bn(ptr noundef %2, ptr noundef @.str.435)
  %7 = call i32 @BN_hex2bn(ptr noundef %3, ptr noundef @.str.321)
  %8 = call ptr @EC_GROUP_new_by_curve_name(i32 noundef 716)
  store ptr %8, ptr %4, align 8, !tbaa !10
  %9 = load ptr, ptr %2, align 8, !tbaa !26
  %10 = load ptr, ptr %4, align 8, !tbaa !10
  %11 = call ptr @EC_GROUP_get0_field(ptr noundef %10)
  %12 = call i32 @BN_cmp(ptr noundef %9, ptr noundef %11)
  %13 = icmp ne i32 %12, 0
  br i1 %13, label %14, label %15

14:                                               ; preds = %0
  store i32 0, ptr %1, align 4, !tbaa !16
  br label %15

15:                                               ; preds = %14, %0
  %16 = call ptr @EC_GROUP_new_by_curve_name(i32 noundef 723)
  store ptr %16, ptr %5, align 8, !tbaa !10
  %17 = load ptr, ptr %3, align 8, !tbaa !26
  %18 = load ptr, ptr %5, align 8, !tbaa !10
  %19 = call ptr @EC_GROUP_get0_field(ptr noundef %18)
  %20 = call i32 @BN_cmp(ptr noundef %17, ptr noundef %19)
  %21 = icmp ne i32 %20, 0
  br i1 %21, label %22, label %23

22:                                               ; preds = %15
  store i32 0, ptr %1, align 4, !tbaa !16
  br label %23

23:                                               ; preds = %22, %15
  %24 = load ptr, ptr %4, align 8, !tbaa !10
  call void @EC_GROUP_free(ptr noundef %24)
  %25 = load ptr, ptr %5, align 8, !tbaa !10
  call void @EC_GROUP_free(ptr noundef %25)
  %26 = load ptr, ptr %2, align 8, !tbaa !26
  call void @BN_free(ptr noundef %26)
  %27 = load ptr, ptr %3, align 8, !tbaa !26
  call void @BN_free(ptr noundef %27)
  %28 = load i32, ptr %1, align 4, !tbaa !16
  call void @llvm.lifetime.end.p0(i64 8, ptr %5) #7
  call void @llvm.lifetime.end.p0(i64 8, ptr %4) #7
  call void @llvm.lifetime.end.p0(i64 8, ptr %3) #7
  call void @llvm.lifetime.end.p0(i64 8, ptr %2) #7
  call void @llvm.lifetime.end.p0(i64 4, ptr %1) #7
  ret i32 %28
}