; Function Attrs: nounwind uwtable
define internal range(i32 0, 2) i32 @group_field_test() #0 {
  %1 = alloca ptr, align 8
  %2 = alloca ptr, align 8
  call void @llvm.lifetime.start.p0(i64 8, ptr nonnull %1) #7
  store ptr null, ptr %1, align 8, !tbaa !12
  call void @llvm.lifetime.start.p0(i64 8, ptr nonnull %2) #7
  store ptr null, ptr %2, align 8, !tbaa !12
  %3 = call i32 @BN_hex2bn(ptr noundef nonnull %1, ptr noundef nonnull @.str.435) #7
  %4 = call i32 @BN_hex2bn(ptr noundef nonnull %2, ptr noundef nonnull @.str.321) #7
  %5 = call ptr @EC_GROUP_new_by_curve_name(i32 noundef 716) #7
  %6 = load ptr, ptr %1, align 8, !tbaa !12
  %7 = call ptr @EC_GROUP_get0_field(ptr noundef %5) #7
  %8 = call i32 @BN_cmp(ptr noundef %6, ptr noundef %7) #7
  %.not = icmp eq i32 %8, 0
  %9 = call ptr @EC_GROUP_new_by_curve_name(i32 noundef 723) #7
  %10 = load ptr, ptr %2, align 8, !tbaa !12
  %11 = call ptr @EC_GROUP_get0_field(ptr noundef %9) #7
  %12 = call i32 @BN_cmp(ptr noundef %10, ptr noundef %11) #7
  %.not4 = icmp eq i32 %12, 0
  %narrow = select i1 %.not4, i1 %.not, i1 false
  %.1 = zext i1 %narrow to i32
  call void @EC_GROUP_free(ptr noundef %5) #7
  call void @EC_GROUP_free(ptr noundef %9) #7
  %13 = load ptr, ptr %1, align 8, !tbaa !12
  call void @BN_free(ptr noundef %13) #7
  %14 = load ptr, ptr %2, align 8, !tbaa !12
  call void @BN_free(ptr noundef %14) #7
  call void @llvm.lifetime.end.p0(i64 8, ptr nonnull %2) #7
  call void @llvm.lifetime.end.p0(i64 8, ptr nonnull %1) #7
  ret i32 %.1
}